; Function Attrs: mustprogress uwtable
define hidden noundef zeroext i1 @_ZN12bv2real_util7is_zeroEP4expr(ptr noundef nonnull align 8 dereferenceable(272) %this, ptr noundef %n) local_unnamed_addr #3 align 2 personality ptr @__gxx_personality_v0 {
entry:
  %r = alloca %class.rational, align 8
  %sz = alloca i32, align 4
  store i32 0, ptr %r, align 8
  %m_kind.i.i.i = getelementptr inbounds i8, ptr %r, i64 4
  store i8 0, ptr %m_kind.i.i.i, align 4
  %m_ptr.i.i.i = getelementptr inbounds i8, ptr %r, i64 8
  store ptr null, ptr %m_ptr.i.i.i, align 8
  %m_den.i.i = getelementptr inbounds i8, ptr %r, i64 16
  store i32 1, ptr %m_den.i.i, align 8
  %m_kind.i1.i.i = getelementptr inbounds i8, ptr %r, i64 20
  store i8 0, ptr %m_kind.i1.i.i, align 4
  %m_ptr.i4.i.i = getelementptr inbounds i8, ptr %r, i64 24
  store ptr null, ptr %m_ptr.i4.i.i, align 8
  %m_bv = getelementptr inbounds i8, ptr %this, i64 24
  %call = invoke noundef zeroext i1 @_ZNK14bv_recognizers10is_numeralEPK4exprR8rationalRj(ptr noundef nonnull align 4 dereferenceable(4) %m_bv, ptr noundef %n, ptr noundef nonnull align 8 dereferenceable(32) %r, ptr noundef nonnull align 4 dereferenceable(4) %sz)
          to label %invoke.cont unwind label %lpad

invoke.cont:                                      ; preds = %entry
  %0 = load i32, ptr %r, align 8
  %1 = load ptr, ptr @_ZN8rational13g_mpq_managerE, align 8
  invoke void @_ZN11mpz_managerILb1EE3delEPS0_R3mpz(ptr noundef %1, ptr noundef nonnull align 8 dereferenceable(16) %r)
          to label %.noexc.i unwind label %terminate.lpad.i

.noexc.i:                                         ; preds = %invoke.cont
  invoke void @_ZN11mpz_managerILb1EE3delEPS0_R3mpz(ptr noundef %1, ptr noundef nonnull align 8 dereferenceable(16) %m_den.i.i)
          to label %_ZN8rationalD2Ev.exit unwind label %terminate.lpad.i

terminate.lpad.i:                                 ; preds = %.noexc.i, %invoke.cont
  %2 = landingpad { ptr, i32 }
          catch ptr null
  %3 = extractvalue { ptr, i32 } %2, 0
  call void @__clang_call_terminate(ptr %3) #18
  unreachable

_ZN8rationalD2Ev.exit:                            ; preds = %.noexc.i
  %cmp.i.i.i.i = icmp eq i32 %0, 0
  %4 = select i1 %call, i1 %cmp.i.i.i.i, i1 false
  ret i1 %4

lpad:                                             ; preds = %entry
  %5 = landingpad { ptr, i32 }
          cleanup
  call void @_ZN8rationalD2Ev(ptr noundef nonnull align 8 dereferenceable(32) %r) #19
  resume { ptr, i32 } %5
}